target datalayout = "e-m:e-p270:32:32-p271:32:32-p272:64:64-i64:64-i128:128-f80:128-n8:16:32:64-S128"
target triple = "x86_64-pc-linux-gnu"

%struct.WebPData = type { ptr, i64 }

@stderr = external global ptr, align 8
@kErrorMessages = internal constant [5 x ptr] [ptr @.str.72, ptr @.str.73, ptr @.str.74, ptr @.str.75, ptr @.str.76], align 16
@.str.89 = private unnamed_addr constant [38 x i8] c"Error (%s) assembling the WebP file.\0A\00", align 1

; Function Attrs: inlinehint nounwind uwtable
define internal void @WebPDataInit(ptr noundef %0) #9 {
  %2 = alloca ptr, align 8
  store ptr %0, ptr %2, align 8, !tbaa !55
  %3 = load ptr, ptr %2, align 8, !tbaa !55
  %4 = icmp ne ptr %3, null
  br i1 %4, label %5, label %7

5:                                                ; preds = %1
  %6 = load ptr, ptr %2, align 8, !tbaa !55
  call void @llvm.memset.p0.i64(ptr align 8 %6, i8 0, i64 16, i1 false)
  br label %7

7:                                                ; preds = %5, %1
  ret void
}

; Function Attrs: inlinehint nounwind uwtable
define internal void @WebPDataClear(ptr noundef %0) #9 {
  %2 = alloca ptr, align 8
  store ptr %0, ptr %2, align 8, !tbaa !55
  %3 = load ptr, ptr %2, align 8, !tbaa !55
  %4 = icmp ne ptr %3, null
  br i1 %4, label %5, label %10

5:                                                ; preds = %1
  %6 = load ptr, ptr %2, align 8, !tbaa !55
  %7 = getelementptr inbounds nuw %struct.WebPData, ptr %6, i32 0, i32 0
  %8 = load ptr, ptr %7, align 8, !tbaa !57
  call void @WebPFree(ptr noundef %8)
  %9 = load ptr, ptr %2, align 8, !tbaa !55
  call void @WebPDataInit(ptr noundef %9)
  br label %10

10:                                               ; preds = %5, %1
  ret void
}

; Function Attrs: nounwind uwtable
define internal ptr @ErrorString(i32 noundef %0) #0 {
  %2 = alloca i32, align 4
  store i32 %0, ptr %2, align 4, !tbaa !4
  %3 = load i32, ptr %2, align 4, !tbaa !4
  %4 = sub nsw i32 0, %3
  %5 = sext i32 %4 to i64
  %6 = getelementptr inbounds [5 x ptr], ptr @kErrorMessages, i64 0, i64 %5
  %7 = load ptr, ptr %6, align 8, !tbaa !26
  ret ptr %7
}

; Function Attrs: nounwind uwtable
define internal i32 @WriteWebP(ptr noundef %0, ptr noundef %1) #0 {
  %3 = alloca i32, align 4
  %4 = alloca ptr, align 8
  %5 = alloca ptr, align 8
  %6 = alloca i32, align 4
  %7 = alloca %struct.WebPData, align 8
  %8 = alloca i32, align 4
  %9 = alloca i32, align 4
  store ptr %0, ptr %4, align 8, !tbaa !21
  store ptr %1, ptr %5, align 8, !tbaa !26
  call void @llvm.lifetime.start.p0(i64 4, ptr %6) #10
  call void @llvm.lifetime.start.p0(i64 16, ptr %7) #10
  call void @llvm.lifetime.start.p0(i64 4, ptr %8) #10
  %10 = load ptr, ptr %4, align 8, !tbaa !21
  %11 = call i32 @WebPMuxAssemble(ptr noundef %10, ptr noundef %7)
  store i32 %11, ptr %8, align 4, !tbaa !4
  %12 = load i32, ptr %8, align 4, !tbaa !4
  %13 = icmp ne i32 %12, 1
  br i1 %13, label %14, label %19

14:                                               ; preds = %2
  %15 = load ptr, ptr @stderr, align 8, !tbaa !12
  %16 = load i32, ptr %8, align 4, !tbaa !4
  %17 = call ptr @ErrorString(i32 noundef %16)
  %18 = call i32 (ptr, ptr, ...) @fprintf(ptr noundef %15, ptr noundef @.str.89, ptr noundef %17) #10
  store i32 0, ptr %3, align 4
  store i32 1, ptr %9, align 4
  br label %23

19:                                               ; preds = %2
  %20 = load ptr, ptr %5, align 8, !tbaa !26
  %21 = call i32 @WriteData(ptr noundef %20, ptr noundef %7)
  store i32 %21, ptr %6, align 4, !tbaa !4
  call void @WebPDataClear(ptr noundef %7)
  %22 = load i32, ptr %6, align 4, !tbaa !4
  store i32 %22, ptr %3, align 4
  store i32 1, ptr %9, align 4
  br label %23

23:                                               ; preds = %19, %14
  call void @llvm.lifetime.end.p0(i64 4, ptr %8) #10
  call void @llvm.lifetime.end.p0(i64 16, ptr %7) #10
  call void @llvm.lifetime.end.p0(i64 4, ptr %6) #10
  %24 = load i32, ptr %3, align 4
  ret i32 %24
}