; Function Attrs: nounwind uwtable
define internal fastcc range(i32 0, 2) i32 @WriteWebP(ptr noundef %0, ptr noundef %1) unnamed_addr #0 {
  %3 = alloca %struct.WebPData, align 8
  call void @llvm.lifetime.start.p0(i64 16, ptr nonnull %3) #12
  %4 = call i32 @WebPMuxAssemble(ptr noundef %0, ptr noundef nonnull %3) #12
  %.not = icmp eq i32 %4, 1
  br i1 %.not, label %12, label %5

5:                                                ; preds = %2
  %6 = load ptr, ptr @stderr, align 8, !tbaa !18
  %7 = sub nsw i32 0, %4
  %8 = sext i32 %7 to i64
  %9 = getelementptr inbounds [5 x ptr], ptr @kErrorMessages, i64 0, i64 %8
  %10 = load ptr, ptr %9, align 8, !tbaa !15
  %11 = call i32 (ptr, ptr, ...) @fprintf(ptr noundef %6, ptr noundef nonnull @.str.89, ptr noundef %10) #16
  br label %15

12:                                               ; preds = %2
  %13 = call fastcc i32 @WriteData(ptr noundef %1, ptr noundef %3)
  %14 = load ptr, ptr %3, align 8, !tbaa !33
  call void @WebPFree(ptr noundef %14) #12
  br label %15

15:                                               ; preds = %12, %5
  %.0 = phi i32 [ 0, %5 ], [ %13, %12 ]
  call void @llvm.lifetime.end.p0(i64 16, ptr nonnull %3) #12
  ret i32 %.0
}